target datalayout = "e-m:e-p270:32:32-p271:32:32-p272:64:64-i64:64-i128:128-f80:128-n8:16:32:64-S128"
target triple = "x86_64-pc-linux-gnu"

%struct.strbuf = type { i64, i64, ptr }

@hexval_table = external constant [256 x i8], align 16

; Function Attrs: inlinehint nounwind uwtable
define internal i64 @strbuf_avail(ptr noundef %0) #5 {
  %2 = alloca ptr, align 8
  store ptr %0, ptr %2, align 8, !tbaa !16
  %3 = load ptr, ptr %2, align 8, !tbaa !16
  %4 = getelementptr inbounds nuw %struct.strbuf, ptr %3, i32 0, i32 0
  %5 = load i64, ptr %4, align 8, !tbaa !23
  %6 = icmp ne i64 %5, 0
  br i1 %6, label %7, label %16

7:                                                ; preds = %1
  %8 = load ptr, ptr %2, align 8, !tbaa !16
  %9 = getelementptr inbounds nuw %struct.strbuf, ptr %8, i32 0, i32 0
  %10 = load i64, ptr %9, align 8, !tbaa !23
  %11 = load ptr, ptr %2, align 8, !tbaa !16
  %12 = getelementptr inbounds nuw %struct.strbuf, ptr %11, i32 0, i32 1
  %13 = load i64, ptr %12, align 8, !tbaa !19
  %14 = sub i64 %10, %13
  %15 = sub i64 %14, 1
  br label %17

16:                                               ; preds = %1
  br label %17

17:                                               ; preds = %16, %7
  %18 = phi i64 [ %15, %7 ], [ 0, %16 ]
  ret i64 %18
}

; Function Attrs: inlinehint nounwind uwtable
define internal i32 @hexval(i8 noundef zeroext %0) #5 {
  %2 = alloca i8, align 1
  store i8 %0, ptr %2, align 1, !tbaa !8
  %3 = load i8, ptr %2, align 1, !tbaa !8
  %4 = zext i8 %3 to i64
  %5 = getelementptr inbounds nuw [256 x i8], ptr @hexval_table, i64 0, i64 %4
  %6 = load i8, ptr %5, align 1, !tbaa !8
  %7 = sext i8 %6 to i32
  ret i32 %7
}

; Function Attrs: inlinehint nounwind uwtable
define internal void @strbuf_addch(ptr noundef %0, i32 noundef %1) #5 {
  %3 = alloca ptr, align 8
  %4 = alloca i32, align 4
  store ptr %0, ptr %3, align 8, !tbaa !16
  store i32 %1, ptr %4, align 4, !tbaa !4
  %5 = load ptr, ptr %3, align 8, !tbaa !16
  %6 = call i64 @strbuf_avail(ptr noundef %5)
  %7 = icmp ne i64 %6, 0
  br i1 %7, label %10, label %8

8:                                                ; preds = %2
  %9 = load ptr, ptr %3, align 8, !tbaa !16
  call void @strbuf_grow(ptr noundef %9, i64 noundef 1)
  br label %10

10:                                               ; preds = %8, %2
  %11 = load i32, ptr %4, align 4, !tbaa !4
  %12 = trunc i32 %11 to i8
  %13 = load ptr, ptr %3, align 8, !tbaa !16
  %14 = getelementptr inbounds nuw %struct.strbuf, ptr %13, i32 0, i32 2
  %15 = load ptr, ptr %14, align 8, !tbaa !22
  %16 = load ptr, ptr %3, align 8, !tbaa !16
  %17 = getelementptr inbounds nuw %struct.strbuf, ptr %16, i32 0, i32 1
  %18 = load i64, ptr %17, align 8, !tbaa !19
  %19 = add i64 %18, 1
  store i64 %19, ptr %17, align 8, !tbaa !19
  %20 = getelementptr inbounds nuw i8, ptr %15, i64 %18
  store i8 %12, ptr %20, align 1, !tbaa !8
  %21 = load ptr, ptr %3, align 8, !tbaa !16
  %22 = getelementptr inbounds nuw %struct.strbuf, ptr %21, i32 0, i32 2
  %23 = load ptr, ptr %22, align 8, !tbaa !22
  %24 = load ptr, ptr %3, align 8, !tbaa !16
  %25 = getelementptr inbounds nuw %struct.strbuf, ptr %24, i32 0, i32 1
  %26 = load i64, ptr %25, align 8, !tbaa !19
  %27 = getelementptr inbounds nuw i8, ptr %23, i64 %26
  store i8 0, ptr %27, align 1, !tbaa !8
  ret void
}

; Function Attrs: inlinehint nounwind uwtable
define internal i32 @hex2chr(ptr noundef %0) #5 {
  %2 = alloca ptr, align 8
  %3 = alloca i32, align 4
  store ptr %0, ptr %2, align 8, !tbaa !9
  call void @llvm.lifetime.start.p0(i64 4, ptr %3) #7
  %4 = load ptr, ptr %2, align 8, !tbaa !9
  %5 = getelementptr inbounds i8, ptr %4, i64 0
  %6 = load i8, ptr %5, align 1, !tbaa !8
  %7 = call i32 @hexval(i8 noundef zeroext %6)
  store i32 %7, ptr %3, align 4, !tbaa !4
  %8 = load i32, ptr %3, align 4, !tbaa !4
  %9 = and i32 %8, -16
  %10 = icmp ne i32 %9, 0
  br i1 %10, label %11, label %13

11:                                               ; preds = %1
  %12 = load i32, ptr %3, align 4, !tbaa !4
  br label %21

13:                                               ; preds = %1
  %14 = load i32, ptr %3, align 4, !tbaa !4
  %15 = shl i32 %14, 4
  %16 = load ptr, ptr %2, align 8, !tbaa !9
  %17 = getelementptr inbounds i8, ptr %16, i64 1
  %18 = load i8, ptr %17, align 1, !tbaa !8
  %19 = call i32 @hexval(i8 noundef zeroext %18)
  %20 = or i32 %15, %19
  br label %21

21:                                               ; preds = %13, %11
  %22 = phi i32 [ %12, %11 ], [ %20, %13 ]
  call void @llvm.lifetime.end.p0(i64 4, ptr %3) #7
  ret i32 %22
}

; Function Attrs: nounwind uwtable
define internal ptr @url_decode_internal(ptr noundef %0, i32 noundef %1, ptr noundef %2, ptr noundef %3, i32 noundef %4) #0 {
  %6 = alloca ptr, align 8
  %7 = alloca i32, align 4
  %8 = alloca ptr, align 8
  %9 = alloca ptr, align 8
  %10 = alloca i32, align 4
  %11 = alloca ptr, align 8
  %12 = alloca i8, align 1
  %13 = alloca i32, align 4
  %14 = alloca i32, align 4
  store ptr %0, ptr %6, align 8, !tbaa !14
  store i32 %1, ptr %7, align 4, !tbaa !4
  store ptr %2, ptr %8, align 8, !tbaa !9
  store ptr %3, ptr %9, align 8, !tbaa !16
  store i32 %4, ptr %10, align 4, !tbaa !4
  call void @llvm.lifetime.start.p0(i64 8, ptr %11) #7
  %15 = load ptr, ptr %6, align 8, !tbaa !14
  %16 = load ptr, ptr %15, align 8, !tbaa !9
  store ptr %16, ptr %11, align 8, !tbaa !9
  br label %17

17:                                               ; preds = %87, %85, %5
  %18 = load i32, ptr %7, align 4, !tbaa !4
  %19 = icmp ne i32 %18, 0
  br i1 %19, label %20, label %88

20:                                               ; preds = %17
  call void @llvm.lifetime.start.p0(i64 1, ptr %12) #7
  %21 = load ptr, ptr %11, align 8, !tbaa !9
  %22 = load i8, ptr %21, align 1, !tbaa !8
  store i8 %22, ptr %12, align 1, !tbaa !8
  %23 = load i8, ptr %12, align 1, !tbaa !8
  %24 = icmp ne i8 %23, 0
  br i1 %24, label %26, label %25

25:                                               ; preds = %20
  store i32 3, ptr %13, align 4
  br label %85

26:                                               ; preds = %20
  %27 = load ptr, ptr %8, align 8, !tbaa !9
  %28 = icmp ne ptr %27, null
  br i1 %28, label %29, label %40

29:                                               ; preds = %26
  %30 = load ptr, ptr %8, align 8, !tbaa !9
  %31 = load i8, ptr %12, align 1, !tbaa !8
  %32 = zext i8 %31 to i32
  %33 = call ptr @strchr(ptr noundef %30, i32 noundef %32) #8
  %34 = icmp ne ptr %33, null
  br i1 %34, label %35, label %40

35:                                               ; preds = %29
  %36 = load ptr, ptr %11, align 8, !tbaa !9
  %37 = getelementptr inbounds nuw i8, ptr %36, i32 1
  store ptr %37, ptr %11, align 8, !tbaa !9
  %38 = load i32, ptr %7, align 4, !tbaa !4
  %39 = add nsw i32 %38, -1
  store i32 %39, ptr %7, align 4, !tbaa !4
  store i32 3, ptr %13, align 4
  br label %85

40:                                               ; preds = %29, %26
  %41 = load i8, ptr %12, align 1, !tbaa !8
  %42 = zext i8 %41 to i32
  %43 = icmp eq i32 %42, 37
  br i1 %43, label %44, label %67

44:                                               ; preds = %40
  %45 = load i32, ptr %7, align 4, !tbaa !4
  %46 = icmp slt i32 %45, 0
  br i1 %46, label %50, label %47

47:                                               ; preds = %44
  %48 = load i32, ptr %7, align 4, !tbaa !4
  %49 = icmp sge i32 %48, 3
  br i1 %49, label %50, label %67

50:                                               ; preds = %47, %44
  call void @llvm.lifetime.start.p0(i64 4, ptr %14) #7
  %51 = load ptr, ptr %11, align 8, !tbaa !9
  %52 = getelementptr inbounds i8, ptr %51, i64 1
  %53 = call i32 @hex2chr(ptr noundef %52)
  store i32 %53, ptr %14, align 4, !tbaa !4
  %54 = load i32, ptr %14, align 4, !tbaa !4
  %55 = icmp slt i32 0, %54
  br i1 %55, label %56, label %63

56:                                               ; preds = %50
  %57 = load ptr, ptr %9, align 8, !tbaa !16
  %58 = load i32, ptr %14, align 4, !tbaa !4
  call void @strbuf_addch(ptr noundef %57, i32 noundef %58)
  %59 = load ptr, ptr %11, align 8, !tbaa !9
  %60 = getelementptr inbounds i8, ptr %59, i64 3
  store ptr %60, ptr %11, align 8, !tbaa !9
  %61 = load i32, ptr %7, align 4, !tbaa !4
  %62 = sub nsw i32 %61, 3
  store i32 %62, ptr %7, align 4, !tbaa !4
  store i32 2, ptr %13, align 4
  br label %64, !llvm.loop !18

63:                                               ; preds = %50
  store i32 0, ptr %13, align 4
  br label %64

64:                                               ; preds = %63, %56
  call void @llvm.lifetime.end.p0(i64 4, ptr %14) #7
  %65 = load i32, ptr %13, align 4
  switch i32 %65, label %85 [
    i32 0, label %66
  ]

66:                                               ; preds = %64
  br label %67

67:                                               ; preds = %66, %47, %40
  %68 = load i32, ptr %10, align 4, !tbaa !4
  %69 = icmp ne i32 %68, 0
  br i1 %69, label %70, label %76

70:                                               ; preds = %67
  %71 = load i8, ptr %12, align 1, !tbaa !8
  %72 = zext i8 %71 to i32
  %73 = icmp eq i32 %72, 43
  br i1 %73, label %74, label %76

74:                                               ; preds = %70
  %75 = load ptr, ptr %9, align 8, !tbaa !16
  call void @strbuf_addch(ptr noundef %75, i32 noundef 32)
  br label %80

76:                                               ; preds = %70, %67
  %77 = load ptr, ptr %9, align 8, !tbaa !16
  %78 = load i8, ptr %12, align 1, !tbaa !8
  %79 = zext i8 %78 to i32
  call void @strbuf_addch(ptr noundef %77, i32 noundef %79)
  br label %80

80:                                               ; preds = %76, %74
  %81 = load ptr, ptr %11, align 8, !tbaa !9
  %82 = getelementptr inbounds nuw i8, ptr %81, i32 1
  store ptr %82, ptr %11, align 8, !tbaa !9
  %83 = load i32, ptr %7, align 4, !tbaa !4
  %84 = add nsw i32 %83, -1
  store i32 %84, ptr %7, align 4, !tbaa !4
  store i32 0, ptr %13, align 4
  br label %85

85:                                               ; preds = %80, %64, %35, %25
  call void @llvm.lifetime.end.p0(i64 1, ptr %12) #7
  %86 = load i32, ptr %13, align 4
  switch i32 %86, label %93 [
    i32 0, label %87
    i32 3, label %88
    i32 2, label %17
  ]

87:                                               ; preds = %85
  br label %17, !llvm.loop !18

88:                                               ; preds = %85, %17
  %89 = load ptr, ptr %11, align 8, !tbaa !9
  %90 = load ptr, ptr %6, align 8, !tbaa !14
  store ptr %89, ptr %90, align 8, !tbaa !9
  %91 = load ptr, ptr %9, align 8, !tbaa !16
  %92 = call ptr @strbuf_detach(ptr noundef %91, ptr noundef null)
  store i32 1, ptr %13, align 4
  call void @llvm.lifetime.end.p0(i64 8, ptr %11) #7
  ret ptr %92

93:                                               ; preds = %85
  unreachable
}